(lp0
cnumpy.core.multiarray
_reconstruct
p1
(cnumpy
ndarray
p2
(I0
tp3
S'b'
p4
tp5
Rp6
(I1
(I6
tp7
cnumpy
dtype
p8
(S'f8'
p9
I0
I1
tp10
Rp11
(I3
S'<'
p12
NNNI-1
I-1
I0
tp13
bI00
S'\x00\x00\x00\x00\x00\x00`@\x00\x00\x00\x00\x00@`@\x00\x00\x00\x00\x00\x80`@\x00\x00\x00\x00\x00\x00a@\x00\x00\x00\x00\x00\x80a@\x00\x00\x00\x00\x00\x00b@'
p14
tp15
ba(lp16
(lp17
F-4.284363242708333
aF-4.287809554635417
aF-4.2835365700520835
aF-4.2875624259375
aF-4.2858274939062495
aF-4.288478490885416
aa(lp18
F-4.2896150172395835
aF-4.287983138645833
aF-4.288529627734375
aF-4.28672116890625
aF-4.288493460703125
aa(lp19
F-4.292167406614584
aF-4.291099502005208
aF-4.290106639322917
aF-4.290026763151041
aF-4.2894402179687505
aa(lp20
F-4.293468246119792
aF-4.290036606901041
aF-4.291557598333333
aF-4.293277794088541
aa(lp21
F-4.292170839348958
aF-4.290500535911458
aa(lp22
F-4.29441464375
aaa.