(lp0
(lp1
cnumpy.core.multiarray
scalar
p2
(cnumpy
dtype
p3
(S'f8'
p4
I0
I1
tp5
Rp6
(I3
S'<'
p7
NNNI-1
I-1
I0
tp8
bS'\x00\x00\x00\x00\x00\x00`@'
p9
tp10
Rp11
ag2
(g6
S'\x00\x00\x00\x00\x00@`@'
p12
tp13
Rp14
ag2
(g6
S'\x00\x00\x00\x00\x00\x80`@'
p15
tp16
Rp17
ag2
(g6
S'\x00\x00\x00\x00\x00\x00a@'
p18
tp19
Rp20
ag2
(g6
S'\x00\x00\x00\x00\x00\x80a@'
p21
tp22
Rp23
ag2
(g6
S'\x00\x00\x00\x00\x00\x00b@'
p24
tp25
Rp26
aa(lp27
(lp28
F-4.284363242708333
aF-4.287809554635417
aF-4.2835365700520835
aF-4.2875624259375
aF-4.2858274939062495
aF-4.288478490885416
aa(lp29
F-4.2896150172395835
aF-4.287983138645833
aF-4.288529627734375
aF-4.28672116890625
aF-4.288493460703125
aa(lp30
F-4.292167406614584
aF-4.291099502005208
aF-2.3523318635416666
aF-4.290026763151041
aF-4.2894402179687505
aa(lp31
F-4.293468246119792
aF-2.42968888703125
aF-4.207401936953125
aF-4.293277794088541
aa(lp32
F-4.292170839348958
aF-4.290500535911458
aa(lp33
F-4.29441464375
aaa.