(lp0
(lp1
F48.0
aF50.0
aF52.0
aF54.0
aa(lp2
(lp3
F-717.28651244
aF-716.80984975
aF-717.28888956
aF-717.40907689
aa(lp4
F-710.47391133
aF-710.41834463
aF-710.33539021
aa(lp5
F-704.12826314
aF-704.16233571
aF-704.17843462
aa(lp6
F-697.15661593
aF-697.14737003
aF-697.14877285
aaa.